target datalayout = "e-m:e-p270:32:32-p271:32:32-p272:64:64-i64:64-i128:128-f80:128-n8:16:32:64-S128"
target triple = "x86_64-pc-linux-gnu"

@.str.17 = private unnamed_addr constant [8 x i8] c"%s %s (\00", align 1
@.str.18 = private unnamed_addr constant [6 x i8] c"token\00", align 1
@.str.19 = private unnamed_addr constant [6 x i8] c"nterm\00", align 1
@.str.20 = private unnamed_addr constant [3 x i8] c": \00", align 1
@.str.21 = private unnamed_addr constant [2 x i8] c")\00", align 1

; Function Attrs: mustprogress nounwind uwtable
define internal void @_ZL21yy_symbol_value_printP8_IO_FILEiPK7YYSTYPEPKN3gmx17SelectionLocationEPv(ptr noundef %0, i32 noundef %1, ptr noundef %2, ptr noundef %3, ptr noundef %4) #0 {
  %6 = alloca ptr, align 8
  %7 = alloca i32, align 4
  %8 = alloca ptr, align 8
  %9 = alloca ptr, align 8
  %10 = alloca ptr, align 8
  %11 = alloca ptr, align 8
  store ptr %0, ptr %6, align 8
  store i32 %1, ptr %7, align 4
  store ptr %2, ptr %8, align 8
  store ptr %3, ptr %9, align 8
  store ptr %4, ptr %10, align 8
  %12 = load ptr, ptr %6, align 8
  store ptr %12, ptr %11, align 8
  %13 = load ptr, ptr %8, align 8
  %14 = icmp ne ptr %13, null
  br i1 %14, label %16, label %15

15:                                               ; preds = %5
  br label %16

16:                                               ; preds = %15, %5
  ret void
}

; Function Attrs: mustprogress uwtable
define internal void @_ZL15yy_symbol_printP8_IO_FILEiPK7YYSTYPEPKN3gmx17SelectionLocationEPv(ptr noundef %0, i32 noundef %1, ptr noundef %2, ptr noundef %3, ptr noundef %4) #3 {
  %6 = alloca ptr, align 8
  %7 = alloca i32, align 4
  %8 = alloca ptr, align 8
  %9 = alloca ptr, align 8
  %10 = alloca ptr, align 8
  store ptr %0, ptr %6, align 8
  store i32 %1, ptr %7, align 4
  store ptr %2, ptr %8, align 8
  store ptr %3, ptr %9, align 8
  store ptr %4, ptr %10, align 8
  %11 = load ptr, ptr %6, align 8
  %12 = load i32, ptr %7, align 4
  %13 = icmp slt i32 %12, 49
  br i1 %13, label %14, label %15

14:                                               ; preds = %5
  br label %16

15:                                               ; preds = %5
  br label %16

16:                                               ; preds = %15, %14
  %17 = phi ptr [ @.str.18, %14 ], [ @.str.19, %15 ]
  %18 = getelementptr inbounds [6 x i8], ptr %17, i64 0, i64 0
  %19 = load i32, ptr %7, align 4
  %20 = sext i32 %19 to i64
  %21 = getelementptr inbounds [75 x ptr], ptr @_ZL7yytname, i64 0, i64 %20
  %22 = load ptr, ptr %21, align 8
  %23 = call i32 (ptr, ptr, ...) @fprintf(ptr noundef %11, ptr noundef @.str.17, ptr noundef %18, ptr noundef %22) #14
  %24 = load ptr, ptr %6, align 8
  %25 = call i32 (ptr, ptr, ...) @fprintf(ptr noundef %24, ptr noundef @.str.20) #14
  %26 = load ptr, ptr %6, align 8
  %27 = load i32, ptr %7, align 4
  %28 = load ptr, ptr %8, align 8
  %29 = load ptr, ptr %9, align 8
  %30 = load ptr, ptr %10, align 8
  call void @_ZL21yy_symbol_value_printP8_IO_FILEiPK7YYSTYPEPKN3gmx17SelectionLocationEPv(ptr noundef %26, i32 noundef %27, ptr noundef %28, ptr noundef %29, ptr noundef %30)
  %31 = load ptr, ptr %6, align 8
  %32 = call i32 (ptr, ptr, ...) @fprintf(ptr noundef %31, ptr noundef @.str.21) #14
  ret void
}