; Function Attrs: mustprogress nofree nounwind uwtable
define internal fastcc void @_ZL15yy_symbol_printP8_IO_FILEiPK7YYSTYPEPKN3gmx17SelectionLocationEPv(ptr nocapture noundef %0, i32 noundef %1) unnamed_addr #7 {
  %3 = icmp slt i32 %1, 49
  %.str.18..str.19 = select i1 %3, ptr @.str.18, ptr @.str.19
  %4 = sext i32 %1 to i64
  %5 = getelementptr inbounds [75 x ptr], ptr @_ZL7yytname, i64 0, i64 %4
  %6 = load ptr, ptr %5, align 8
  %7 = tail call i32 (ptr, ptr, ...) @fprintf(ptr noundef %0, ptr noundef nonnull @.str.17, ptr noundef nonnull %.str.18..str.19, ptr noundef %6) #21
  %8 = tail call i64 @fwrite(ptr nonnull @.str.20, i64 2, i64 1, ptr %0)
  %fputc = tail call i32 @fputc(i32 41, ptr %0)
  ret void
}